; Function Attrs: nounwind uwtable
define void @Ivy_TableDelete(ptr noundef captures(none) %0, ptr noundef readonly captures(none) %1) local_unnamed_addr #2 {
  %3 = getelementptr i8, ptr %1, i64 8
  %.val = load i32, ptr %3, align 8
  %4 = and i32 %.val, 15
  %5 = add nsw i32 %4, -7
  %narrow.i = icmp ult i32 %5, -3
  br i1 %narrow.i, label %.loopexit, label %6

6:                                                ; preds = %2
  %7 = getelementptr inbounds nuw i8, ptr %0, i64 168
  %8 = load i32, ptr %7, align 8, !tbaa !12
  %9 = getelementptr i8, ptr %1, i64 16
  %.val12.i.i = load ptr, ptr %9, align 8, !tbaa !3
  %.not.i.i.i = icmp eq ptr %.val12.i.i, null
  br i1 %.not.i.i.i, label %Ivy_ObjFaninId0.exit.i.i, label %10

10:                                               ; preds = %6
  %11 = ptrtoint ptr %.val12.i.i to i64
  %12 = and i64 %11, -2
  %13 = inttoptr i64 %12 to ptr
  %.val.i.i.i = load i32, ptr %13, align 8, !tbaa !19
  %14 = mul nsw i32 %.val.i.i.i, 7937
  br label %Ivy_ObjFaninId0.exit.i.i

Ivy_ObjFaninId0.exit.i.i:                         ; preds = %10, %6
  %15 = phi i32 [ %14, %10 ], [ 0, %6 ]
  %16 = getelementptr i8, ptr %1, i64 24
  %.val13.i.i = load ptr, ptr %16, align 8, !tbaa !11
  %.not.i17.i.i = icmp eq ptr %.val13.i.i, null
  %.pre.i.i = ptrtoint ptr %.val13.i.i to i64
  br i1 %.not.i17.i.i, label %Ivy_Hash.exit.i, label %17

17:                                               ; preds = %Ivy_ObjFaninId0.exit.i.i
  %18 = and i64 %.pre.i.i, -2
  %19 = inttoptr i64 %18 to ptr
  %.val.i18.i.i = load i32, ptr %19, align 8, !tbaa !19
  %20 = mul nsw i32 %.val.i18.i.i, 2971
  br label %Ivy_Hash.exit.i

Ivy_Hash.exit.i:                                  ; preds = %17, %Ivy_ObjFaninId0.exit.i.i
  %21 = phi i32 [ %20, %17 ], [ 0, %Ivy_ObjFaninId0.exit.i.i ]
  %22 = icmp eq i32 %4, 6
  %23 = select i1 %22, i32 1699, i32 0
  %24 = ptrtoint ptr %.val12.i.i to i64
  %25 = trunc i64 %24 to i1
  %26 = select i1 %25, i32 911, i32 0
  %27 = trunc i64 %.pre.i.i to i1
  %28 = select i1 %27, i32 353, i32 0
  %29 = lshr i32 %.val, 9
  %30 = and i32 %29, 3
  %31 = mul nuw nsw i32 %30, 911
  %32 = xor i32 %31, %23
  %33 = xor i32 %32, %26
  %34 = xor i32 %33, %15
  %35 = xor i32 %34, %28
  %36 = xor i32 %35, %21
  %37 = urem i32 %36, %8
  %38 = getelementptr inbounds nuw i8, ptr %0, i64 160
  %39 = load ptr, ptr %38, align 8, !tbaa !20
  %40 = sext i32 %37 to i64
  %41 = getelementptr inbounds i32, ptr %39, i64 %40
  %42 = load i32, ptr %41, align 4, !tbaa !21
  %.not13.i = icmp eq i32 %42, 0
  br i1 %.not13.i, label %Ivy_TableFind.exit, label %.lr.ph.i

.lr.ph.i:                                         ; preds = %Ivy_Hash.exit.i
  %43 = load i32, ptr %1, align 8, !tbaa !19
  %44 = icmp eq i32 %42, %43
  br i1 %44, label %Ivy_TableFind.exit, label %.lr.ph

.lr.ph:                                           ; preds = %.lr.ph.i, %.lr.ph
  %.014.i21 = phi i32 [ %46, %.lr.ph ], [ %37, %.lr.ph.i ]
  %45 = add nsw i32 %.014.i21, 1
  %46 = srem i32 %45, %8
  %47 = sext i32 %46 to i64
  %48 = getelementptr inbounds i32, ptr %39, i64 %47
  %49 = load i32, ptr %48, align 4, !tbaa !21
  %.not.i = icmp eq i32 %49, 0
  %50 = icmp eq i32 %49, %43
  %or.cond = or i1 %.not.i, %50
  br i1 %or.cond, label %Ivy_TableFind.exit, label %.lr.ph, !llvm.loop !30

Ivy_TableFind.exit:                               ; preds = %.lr.ph, %.lr.ph.i, %Ivy_Hash.exit.i
  %.lcssa12.i = phi i64 [ %40, %Ivy_Hash.exit.i ], [ %40, %.lr.ph.i ], [ %47, %.lr.ph ]
  %51 = getelementptr inbounds i32, ptr %39, i64 %.lcssa12.i
  store i32 0, ptr %51, align 4, !tbaa !21
  %52 = trunc nsw i64 %.lcssa12.i to i32
  %53 = add nsw i32 %52, 1
  %54 = load i32, ptr %7, align 8, !tbaa !12
  %55 = srem i32 %53, %54
  %56 = sext i32 %55 to i64
  %57 = getelementptr inbounds i32, ptr %39, i64 %56
  %58 = load i32, ptr %57, align 4, !tbaa !21
  %.not1924 = icmp eq i32 %58, 0
  br i1 %.not1924, label %.loopexit, label %.lr.ph26

.lr.ph26:                                         ; preds = %Ivy_TableFind.exit
  %59 = getelementptr i8, ptr %0, i64 24
  br label %60

60:                                               ; preds = %.lr.ph26, %60
  %61 = phi i32 [ %58, %.lr.ph26 ], [ %73, %60 ]
  %62 = phi ptr [ %57, %.lr.ph26 ], [ %72, %60 ]
  %.025 = phi i32 [ %55, %.lr.ph26 ], [ %69, %60 ]
  %.val20 = load ptr, ptr %59, align 8, !tbaa !22
  %63 = getelementptr i8, ptr %.val20, i64 8
  %.val20.val = load ptr, ptr %63, align 8, !tbaa !23
  %64 = sext i32 %61 to i64
  %65 = getelementptr inbounds ptr, ptr %.val20.val, i64 %64
  %66 = load ptr, ptr %65, align 8, !tbaa !25
  store i32 0, ptr %62, align 4, !tbaa !21
  tail call void @Ivy_TableInsert(ptr noundef nonnull %0, ptr noundef %66)
  %67 = add nsw i32 %.025, 1
  %68 = load i32, ptr %7, align 8, !tbaa !12
  %69 = srem i32 %67, %68
  %70 = load ptr, ptr %38, align 8, !tbaa !20
  %71 = sext i32 %69 to i64
  %72 = getelementptr inbounds i32, ptr %70, i64 %71
  %73 = load i32, ptr %72, align 4, !tbaa !21
  %.not19 = icmp eq i32 %73, 0
  br i1 %.not19, label %.loopexit, label %60, !llvm.loop !32

.loopexit:                                        ; preds = %60, %Ivy_TableFind.exit, %2
  ret void
}